; Function Attrs: nounwind uwtable
define internal fastcc ptr @dict_pop_default(ptr noundef %0, ptr noundef %1, ptr noundef %2) unnamed_addr #0 {
  %4 = alloca ptr, align 8
  call void @llvm.lifetime.start.p0(i64 8, ptr nonnull %4) #23
  %5 = getelementptr i8, ptr %0, i64 8
  %.val.i.i = load ptr, ptr %5, align 8, !tbaa !25
  %6 = getelementptr i8, ptr %.val.i.i, i64 168
  %.val22.i.i = load i64, ptr %6, align 8, !tbaa !28
  %7 = and i64 %.val22.i.i, 536870912
  %.not.i.i = icmp eq i64 %7, 0
  br i1 %.not.i.i, label %8, label %9

8:                                                ; preds = %3
  tail call void @_PyErr_BadInternalCall(ptr noundef nonnull @.str.3, i32 noundef 3042) #23
  br label %_Py_NewRef.exit

9:                                                ; preds = %3
  %10 = getelementptr inbounds nuw i8, ptr %0, i64 16
  %11 = load i64, ptr %10, align 8, !tbaa !43
  %12 = icmp eq i64 %11, 0
  br i1 %12, label %PyDict_Pop.exit.thread8, label %13

PyDict_Pop.exit.thread8:                          ; preds = %9
  store ptr null, ptr %4, align 8, !tbaa !64
  br label %22

13:                                               ; preds = %9
  %14 = getelementptr i8, ptr %1, i64 8
  %.val.i.i.i = load ptr, ptr %14, align 8, !tbaa !25
  %.not.i.i.i = icmp eq ptr %.val.i.i.i, @PyUnicode_Type
  br i1 %.not.i.i.i, label %15, label %_PyObject_HashFast.exit.i.i

15:                                               ; preds = %13
  %16 = getelementptr inbounds nuw i8, ptr %1, i64 24
  %17 = load i64, ptr %16, align 8, !tbaa !55
  %.not7.not.i.i.i = icmp eq i64 %17, -1
  br i1 %.not7.not.i.i.i, label %_PyObject_HashFast.exit.i.i, label %PyDict_Pop.exit

_PyObject_HashFast.exit.i.i:                      ; preds = %15, %13
  %18 = tail call i64 @PyObject_Hash(ptr noundef nonnull %1) #23
  %19 = icmp eq i64 %18, -1
  br i1 %19, label %_Py_NewRef.exit, label %PyDict_Pop.exit

PyDict_Pop.exit:                                  ; preds = %15, %_PyObject_HashFast.exit.i.i
  %.1.i24.i.i = phi i64 [ %18, %_PyObject_HashFast.exit.i.i ], [ %17, %15 ]
  %20 = call i32 @_PyDict_Pop_KnownHash(ptr noundef nonnull %0, ptr noundef nonnull %1, i64 noundef %.1.i24.i.i, ptr noundef nonnull %4)
  %21 = icmp eq i32 %20, 0
  br i1 %21, label %22, label %PyDict_Pop.exit.PyDict_Pop.exit.thread_crit_edge

PyDict_Pop.exit.PyDict_Pop.exit.thread_crit_edge: ; preds = %PyDict_Pop.exit
  %.pre = load ptr, ptr %4, align 8, !tbaa !64
  br label %_Py_NewRef.exit

22:                                               ; preds = %PyDict_Pop.exit.thread8, %PyDict_Pop.exit
  %.not = icmp eq ptr %2, null
  br i1 %.not, label %28, label %23

23:                                               ; preds = %22
  %24 = load i32, ptr %2, align 8, !tbaa !41
  %25 = icmp slt i32 %24, 0
  br i1 %25, label %_Py_NewRef.exit, label %26

26:                                               ; preds = %23
  %27 = add nuw i32 %24, 1
  store i32 %27, ptr %2, align 8, !tbaa !41
  br label %_Py_NewRef.exit

28:                                               ; preds = %22
  call void @_PyErr_SetKeyError(ptr noundef %1) #23
  br label %_Py_NewRef.exit

_Py_NewRef.exit:                                  ; preds = %_PyObject_HashFast.exit.i.i, %8, %PyDict_Pop.exit.PyDict_Pop.exit.thread_crit_edge, %26, %23, %28
  %.0 = phi ptr [ null, %28 ], [ %2, %23 ], [ %2, %26 ], [ %.pre, %PyDict_Pop.exit.PyDict_Pop.exit.thread_crit_edge ], [ null, %8 ], [ null, %_PyObject_HashFast.exit.i.i ]
  call void @llvm.lifetime.end.p0(i64 8, ptr nonnull %4) #23
  ret ptr %.0
}